target datalayout = "e-m:e-p270:32:32-p271:32:32-p272:64:64-i64:64-i128:128-f80:128-n8:16:32:64-S128"
target triple = "x86_64-pc-linux-gnu"

%struct._sunTimerStruct = type { ptr, ptr, double, double, double, i64 }
%struct.SUNHashMapKeyValue_ = type { ptr, ptr }

; Function Attrs: nounwind uwtable
define internal i32 @sunCompareTimes(ptr noundef %0, ptr noundef %1) #0 {
  %3 = alloca i32, align 4
  %4 = alloca ptr, align 8
  %5 = alloca ptr, align 8
  %6 = alloca double, align 8
  %7 = alloca double, align 8
  %8 = alloca ptr, align 8
  %9 = alloca ptr, align 8
  %10 = alloca i32, align 4
  store ptr %0, ptr %4, align 8, !tbaa !35
  store ptr %1, ptr %5, align 8, !tbaa !35
  call void @llvm.lifetime.start.p0(i64 8, ptr %6) #8
  call void @llvm.lifetime.start.p0(i64 8, ptr %7) #8
  call void @llvm.lifetime.start.p0(i64 8, ptr %8) #8
  %11 = load ptr, ptr %4, align 8, !tbaa !35
  %12 = load ptr, ptr %11, align 8, !tbaa !45
  store ptr %12, ptr %8, align 8, !tbaa !45
  call void @llvm.lifetime.start.p0(i64 8, ptr %9) #8
  %13 = load ptr, ptr %5, align 8, !tbaa !35
  %14 = load ptr, ptr %13, align 8, !tbaa !45
  store ptr %14, ptr %9, align 8, !tbaa !45
  %15 = load ptr, ptr %8, align 8, !tbaa !45
  %16 = icmp eq ptr %15, null
  br i1 %16, label %17, label %21

17:                                               ; preds = %2
  %18 = load ptr, ptr %9, align 8, !tbaa !45
  %19 = icmp eq ptr %18, null
  br i1 %19, label %20, label %21

20:                                               ; preds = %17
  store i32 0, ptr %3, align 4
  store i32 1, ptr %10, align 4
  br label %50

21:                                               ; preds = %17, %2
  %22 = load ptr, ptr %8, align 8, !tbaa !45
  %23 = icmp eq ptr %22, null
  br i1 %23, label %24, label %25

24:                                               ; preds = %21
  store i32 1, ptr %3, align 4
  store i32 1, ptr %10, align 4
  br label %50

25:                                               ; preds = %21
  %26 = load ptr, ptr %9, align 8, !tbaa !45
  %27 = icmp eq ptr %26, null
  br i1 %27, label %28, label %29

28:                                               ; preds = %25
  store i32 -1, ptr %3, align 4
  store i32 1, ptr %10, align 4
  br label %50

29:                                               ; preds = %25
  %30 = load ptr, ptr %8, align 8, !tbaa !45
  %31 = getelementptr inbounds nuw %struct.SUNHashMapKeyValue_, ptr %30, i32 0, i32 1
  %32 = load ptr, ptr %31, align 8, !tbaa !47
  %33 = getelementptr inbounds nuw %struct._sunTimerStruct, ptr %32, i32 0, i32 3
  %34 = load double, ptr %33, align 8, !tbaa !33
  store double %34, ptr %6, align 8, !tbaa !40
  %35 = load ptr, ptr %9, align 8, !tbaa !45
  %36 = getelementptr inbounds nuw %struct.SUNHashMapKeyValue_, ptr %35, i32 0, i32 1
  %37 = load ptr, ptr %36, align 8, !tbaa !47
  %38 = getelementptr inbounds nuw %struct._sunTimerStruct, ptr %37, i32 0, i32 3
  %39 = load double, ptr %38, align 8, !tbaa !33
  store double %39, ptr %7, align 8, !tbaa !40
  %40 = load double, ptr %6, align 8, !tbaa !40
  %41 = load double, ptr %7, align 8, !tbaa !40
  %42 = fcmp olt double %40, %41
  br i1 %42, label %43, label %44

43:                                               ; preds = %29
  store i32 1, ptr %3, align 4
  store i32 1, ptr %10, align 4
  br label %50

44:                                               ; preds = %29
  %45 = load double, ptr %6, align 8, !tbaa !40
  %46 = load double, ptr %7, align 8, !tbaa !40
  %47 = fcmp ogt double %45, %46
  br i1 %47, label %48, label %49

48:                                               ; preds = %44
  store i32 -1, ptr %3, align 4
  store i32 1, ptr %10, align 4
  br label %50

49:                                               ; preds = %44
  store i32 0, ptr %3, align 4
  store i32 1, ptr %10, align 4
  br label %50

50:                                               ; preds = %49, %48, %43, %28, %24, %20
  call void @llvm.lifetime.end.p0(i64 8, ptr %9) #8
  call void @llvm.lifetime.end.p0(i64 8, ptr %8) #8
  call void @llvm.lifetime.end.p0(i64 8, ptr %7) #8
  call void @llvm.lifetime.end.p0(i64 8, ptr %6) #8
  %51 = load i32, ptr %3, align 4
  ret i32 %51
}