; Function Attrs: mustprogress nofree norecurse nosync nounwind willreturn memory(read, inaccessiblemem: none) uwtable
define internal range(i32 -1, 2) i32 @sunCompareTimes(ptr noundef readonly captures(none) %0, ptr noundef readonly captures(none) %1) #10 {
  %3 = load ptr, ptr %0, align 8, !tbaa !37
  %4 = load ptr, ptr %1, align 8, !tbaa !37
  %5 = icmp eq ptr %3, null
  %6 = icmp eq ptr %4, null
  %or.cond = select i1 %5, i1 %6, i1 false
  %not.or.cond = xor i1 %or.cond, true
  %.mux = zext i1 %not.or.cond to i32
  %brmerge17 = select i1 %5, i1 true, i1 %6
  %.mux.mux = select i1 %5, i32 %.mux, i32 -1
  br i1 %brmerge17, label %19, label %7

7:                                                ; preds = %2
  %8 = getelementptr inbounds nuw i8, ptr %3, i64 8
  %9 = load ptr, ptr %8, align 8, !tbaa !39
  %10 = getelementptr inbounds nuw i8, ptr %9, i64 24
  %11 = load double, ptr %10, align 8, !tbaa !28
  %12 = getelementptr inbounds nuw i8, ptr %4, i64 8
  %13 = load ptr, ptr %12, align 8, !tbaa !39
  %14 = getelementptr inbounds nuw i8, ptr %13, i64 24
  %15 = load double, ptr %14, align 8, !tbaa !28
  %16 = fcmp olt double %11, %15
  br i1 %16, label %19, label %17

17:                                               ; preds = %7
  %18 = fcmp ogt double %11, %15
  %. = sext i1 %18 to i32
  br label %19

19:                                               ; preds = %2, %17, %7
  %.0 = phi i32 [ %.mux.mux, %2 ], [ 1, %7 ], [ %., %17 ]
  ret i32 %.0
}